; Function Attrs: nounwind uwtable
define dso_local zeroext i1 @opfamily_can_sort_type(i32 noundef %0, i32 noundef %1) local_unnamed_addr #0 {
  %3 = tail call ptr @SearchSysCacheList(i32 noundef 13, i32 noundef 1, i64 noundef 403, i64 noundef 0, i64 noundef 0) #8
  %4 = getelementptr inbounds nuw i8, ptr %3, i64 64
  %5 = load i32, ptr %4, align 8
  %6 = icmp sgt i32 %5, 0
  br i1 %6, label %.lr.ph.i, label %opclass_for_family_datatype.exit

.lr.ph.i:                                         ; preds = %2
  %7 = getelementptr inbounds nuw i8, ptr %3, i64 80
  %wide.trip.count.i = zext nneg i32 %5 to i64
  br label %8

8:                                                ; preds = %26, %.lr.ph.i
  %indvars.iv.i = phi i64 [ 0, %.lr.ph.i ], [ %indvars.iv.next.i, %26 ]
  %9 = getelementptr inbounds nuw [0 x ptr], ptr %7, i64 0, i64 %indvars.iv.i
  %10 = load ptr, ptr %9, align 8
  %11 = getelementptr i8, ptr %10, i64 80
  %.val.i = load ptr, ptr %11, align 8
  %12 = getelementptr inbounds nuw i8, ptr %.val.i, i64 22
  %13 = load i8, ptr %12, align 2
  %14 = zext i8 %13 to i64
  %15 = getelementptr inbounds nuw i8, ptr %.val.i, i64 %14
  %16 = getelementptr inbounds nuw i8, ptr %15, i64 80
  %17 = load i32, ptr %16, align 4
  %18 = icmp eq i32 %17, %0
  br i1 %18, label %19, label %26

19:                                               ; preds = %8
  %20 = getelementptr inbounds nuw i8, ptr %15, i64 84
  %21 = load i32, ptr %20, align 4
  %22 = icmp eq i32 %21, %1
  br i1 %22, label %23, label %26

23:                                               ; preds = %19
  %24 = load i32, ptr %15, align 4
  %25 = icmp ne i32 %24, 0
  br label %opclass_for_family_datatype.exit

26:                                               ; preds = %19, %8
  %indvars.iv.next.i = add nuw nsw i64 %indvars.iv.i, 1
  %exitcond.not.i = icmp eq i64 %indvars.iv.next.i, %wide.trip.count.i
  br i1 %exitcond.not.i, label %opclass_for_family_datatype.exit, label %8, !llvm.loop !11

opclass_for_family_datatype.exit:                 ; preds = %26, %2, %23
  %.1.i = phi i1 [ %25, %23 ], [ false, %2 ], [ false, %26 ]
  tail call void @ReleaseCatCacheList(ptr noundef nonnull %3) #8
  ret i1 %.1.i
}